Certificate:
    Data:
        Version: 3 (0x2)
        Serial Number: 17812728169950355248 (0xf73385e50a7c1f30)
    Signature Algorithm: sha256WithRSAEncryption
        Issuer: C=CN, ST=Baird, O=someone, OU=someone, CN=PTonlix/emailAddress=260431910@qq.com
        Validity
            Not Before: Mar 29 07:19:45 2018 GMT
            Not After : Mar 28 07:19:45 2021 GMT
        Subject: C=CN, ST=Baird, O=someone, OU=someone, CN=PTonlix/emailAddress=260431910@qq.com
        Subject Public Key Info:
            Public Key Algorithm: rsaEncryption
                Public-Key: (2048 bit)
                Modulus:
                    00:e2:68:eb:f9:38:5e:0b:8d:ed:c2:bd:8a:43:12:
                    fb:e5:5c:cd:55:ff:ca:3d:07:48:33:f5:7a:87:31:
                    6f:1d:db:06:46:ef:67:01:f7:25:f1:46:99:8f:dc:
                    5d:e7:cf:22:23:55:6d:2d:d5:69:aa:41:08:4d:37:
                    79:0d:d0:eb:2d:f7:04:82:62:d6:07:ae:ac:bf:92:
                    81:13:d6:91:80:ec:db:2b:af:a7:42:e9:5a:ee:f8:
                    fb:0c:b7:b3:f0:cd:db:8f:c2:e3:cd:60:b1:8b:9a:
                    70:b7:8d:bf:4b:ea:a5:1a:ce:c8:4e:06:52:cf:49:
                    28:3a:dc:f4:74:31:49:c5:ce:49:2e:fb:7d:e1:a0:
                    b3:de:ad:b5:18:35:29:54:7f:d3:e1:2b:23:d0:14:
                    69:a7:b5:d2:b8:2a:9d:a4:b7:59:61:90:dd:ef:5f:
                    cb:1f:3d:bd:9f:5c:2c:75:91:43:ee:14:73:12:c6:
                    d1:8e:e6:eb:5c:01:44:f5:ad:3b:3c:a1:0d:6a:49:
                    87:d2:83:3a:13:e9:45:c6:75:58:69:a0:63:b9:a6:
                    dd:7c:f2:c6:93:e7:d4:3e:a6:cb:1f:6e:06:94:1e:
                    0d:fc:d8:40:a1:29:8c:c1:82:34:25:30:bc:fe:e8:
                    b6:3c:47:18:4b:7f:df:a4:0d:be:41:5e:61:da:4a:
                    d3:59
                Exponent: 65537 (0x10001)
        X509v3 extensions:
            X509v3 Subject Key Identifier: 
                C3:9C:94:B4:01:44:52:C9:1B:13:63:92:CC:25:B9:3F:59:10:97:26
            X509v3 Authority Key Identifier: 
                keyid:C3:9C:94:B4:01:44:52:C9:1B:13:63:92:CC:25:B9:3F:59:10:97:26

            X509v3 Basic Constraints: 
                CA:TRUE
    Signature Algorithm: sha256WithRSAEncryption
         1a:5f:e1:1a:dd:c1:3d:03:bb:ad:9d:2e:5d:e9:6d:f1:fb:b9:
         a8:3f:96:f9:58:ca:9b:8a:12:83:e1:eb:39:be:05:b7:49:de:
         06:25:3f:6b:cc:4c:bf:ec:11:12:02:2d:62:c1:d3:95:aa:42:
         0e:f1:e5:cd:a7:de:12:90:e2:42:a7:3b:09:47:1c:80:8d:45:
         bd:26:9f:77:3a:97:bf:5e:a4:58:45:b1:e8:af:0e:d8:bd:be:
         d8:39:14:a5:c2:79:fe:1f:80:78:d5:db:e7:29:11:ac:fd:10:
         27:1b:c3:de:ad:2d:bc:f4:60:5b:05:b0:8c:e3:19:a6:1b:63:
         36:90:12:cc:17:b2:b6:d1:07:86:0c:d3:9b:8b:9f:6b:56:22:
         60:ab:b5:0b:0b:df:cd:2d:a9:44:ac:86:c1:b3:a6:4a:58:6b:
         c5:79:43:26:0f:82:58:50:3e:12:d7:69:5d:53:12:81:06:2e:
         62:ed:21:66:69:3e:f8:83:9b:4f:0e:b2:f3:f4:52:f9:87:72:
         73:7f:03:3b:6f:35:2f:84:a6:e6:d8:c3:5a:22:19:09:0d:a5:
         9a:1c:70:3d:18:18:4d:8b:b7:7a:16:a2:c5:6d:7d:71:38:b5:
         5a:9a:16:d8:fd:81:71:9d:79:a0:fd:cc:b1:0e:d9:38:8f:9d:
         43:61:8f:e5
-----BEGIN CERTIFICATE-----
MIIDuzCCAqOgAwIBAgIJAPczheUKfB8wMA0GCSqGSIb3DQEBCwUAMHQxCzAJBgNV
BAYTAkNOMQ4wDAYDVQQIDAVCYWlyZDEQMA4GA1UECgwHc29tZW9uZTEQMA4GA1UE
CwwHc29tZW9uZTEQMA4GA1UEAwwHUFRvbmxpeDEfMB0GCSqGSIb3DQEJARYQMjYw
NDMxOTEwQHFxLmNvbTAeFw0xODAzMjkwNzE5NDVaFw0yMTAzMjgwNzE5NDVaMHQx
CzAJBgNVBAYTAkNOMQ4wDAYDVQQIDAVCYWlyZDEQMA4GA1UECgwHc29tZW9uZTEQ
MA4GA1UECwwHc29tZW9uZTEQMA4GA1UEAwwHUFRvbmxpeDEfMB0GCSqGSIb3DQEJ
ARYQMjYwNDMxOTEwQHFxLmNvbTCCASIwDQYJKoZIhvcNAQEBBQADggEPADCCAQoC
ggEBAOJo6/k4XguN7cK9ikMS++VczVX/yj0HSDP1eocxbx3bBkbvZwH3JfFGmY/c
XefPIiNVbS3VaapBCE03eQ3Q6y33BIJi1geurL+SgRPWkYDs2yuvp0LpWu74+wy3
s/DN24/C481gsYuacLeNv0vqpRrOyE4GUs9JKDrc9HQxScXOSS77feGgs96ttRg1
KVR/0+ErI9AUaae10rgqnaS3WWGQ3e9fyx89vZ9cLHWRQ+4UcxLG0Y7m61wBRPWt
OzyhDWpJh9KDOhPpRcZ1WGmgY7mm3XzyxpPn1D6myx9uBpQeDfzYQKEpjMGCNCUw
vP7otjxHGEt/36QNvkFeYdpK01kCAwEAAaNQME4wHQYDVR0OBBYEFMOclLQBRFLJ
GxNjkswluT9ZEJcmMB8GA1UdIwQYMBaAFMOclLQBRFLJGxNjkswluT9ZEJcmMAwG
A1UdEwQFMAMBAf8wDQYJKoZIhvcNAQELBQADggEBABpf4RrdwT0Du62dLl3pbfH7
uag/lvlYypuKEoPh6zm+BbdJ3gYlP2vMTL/sERICLWLB05WqQg7x5c2n3hKQ4kKn
OwlHHICNRb0mn3c6l79epFhFseivDti9vtg5FKXCef4fgHjV2+cpEaz9ECcbw96t
Lbz0YFsFsIzjGaYbYzaQEswXsrbRB4YM05uLn2tWImCrtQsL380tqUSshsGzpkpY
a8V5QyYPglhQPhLXaV1TEoEGLmLtIWZpPviDm08OsvP0UvmHcnN/AztvNS+EpubY
w1oiGQkNpZoccD0YGE2Lt3oWosVtfXE4tVqaFtj9gXGdeaD9zLEO2TiPnUNhj+U=
-----END CERTIFICATE-----
